target datalayout = "e-m:e-p270:32:32-p271:32:32-p272:64:64-i64:64-i128:128-f80:128-n8:16:32:64-S128"
target triple = "x86_64-pc-linux-gnu"

%struct._dcerpc_info = type { ptr, i32, i64, i8, i8, i8, i32, i32, i32, i32, i32, i32, i32, i32, ptr, ptr, ptr, ptr, %struct.anon }
%struct.anon = type { i8, ptr, ptr, ptr, i8 }
%struct._packet_info = type { ptr, ptr, i32, i32, %struct.nstime_t, %struct.nstime_t, %struct.nstime_t, i8, ptr, ptr, ptr, ptr, %struct._address, %struct._address, %struct._address, %struct._address, %struct._address, %struct._address, i32, ptr, i8, [3 x i8], %struct.anon.0, i32, i32, i32, i32, ptr, i8, ptr, ptr, i16, i16, i32, i32, i16, i32, i32, ptr, ptr, ptr, i8, i8, i16, i16, i16, i32, i16, i16, ptr, ptr, ptr, ptr, ptr, i32, i32 }
%struct.nstime_t = type { i64, i32 }
%struct._address = type { i32, i32, ptr, ptr }
%struct.anon.0 = type { i8, [3 x i8] }

@hf_fileexp_position_high = internal global i32 0, align 4
@hf_fileexp_position_low = internal global i32 0, align 4
@hf_fileexp_length = internal global i32 0, align 4
@.str.376 = private unnamed_addr constant [9 x i8] c"afsFid: \00", align 1
@.str.377 = private unnamed_addr constant [8 x i8] c"MinVVp:\00", align 1
@.str.378 = private unnamed_addr constant [10 x i8] c"afsFlags:\00", align 1
@.str.414 = private unnamed_addr constant [26 x i8] c" Position:%u/%u Length:%u\00", align 1
@.str.422 = private unnamed_addr constant [16 x i8] c"afsStoreStatus:\00", align 1

; Function Attrs: null_pointer_is_valid sspstrong uwtable
define internal i32 @fileexp_dissect_storedata_rqst(ptr noundef %0, i32 noundef %1, ptr noundef %2, ptr noundef %3, ptr noundef %4, ptr noundef %5) #0 {
  %7 = alloca i32, align 4
  %8 = alloca ptr, align 8
  %9 = alloca i32, align 4
  %10 = alloca ptr, align 8
  %11 = alloca ptr, align 8
  %12 = alloca ptr, align 8
  %13 = alloca ptr, align 8
  %14 = alloca i32, align 4
  %15 = alloca i32, align 4
  %16 = alloca i32, align 4
  %17 = alloca i32, align 4
  store ptr %0, ptr %8, align 8
  store i32 %1, ptr %9, align 4
  store ptr %2, ptr %10, align 8
  store ptr %3, ptr %11, align 8
  store ptr %4, ptr %12, align 8
  store ptr %5, ptr %13, align 8
  call void @llvm.lifetime.start.p0(i64 4, ptr %14) #4
  call void @llvm.lifetime.start.p0(i64 4, ptr %15) #4
  call void @llvm.lifetime.start.p0(i64 4, ptr %16) #4
  %18 = load ptr, ptr %12, align 8
  %19 = getelementptr inbounds nuw %struct._dcerpc_info, ptr %18, i32 0, i32 4
  %20 = load i8, ptr %19, align 1, !range !6, !noundef !7
  %21 = trunc i8 %20 to i1
  br i1 %21, label %22, label %24

22:                                               ; preds = %6
  %23 = load i32, ptr %9, align 4
  store i32 %23, ptr %7, align 4
  store i32 1, ptr %17, align 4
  br label %84

24:                                               ; preds = %6
  %25 = load ptr, ptr %8, align 8
  %26 = load i32, ptr %9, align 4
  %27 = load ptr, ptr %10, align 8
  %28 = load ptr, ptr %11, align 8
  %29 = load ptr, ptr %12, align 8
  %30 = load ptr, ptr %13, align 8
  %31 = call i32 @dissect_ndr_pointer(ptr noundef %25, i32 noundef %26, ptr noundef %27, ptr noundef %28, ptr noundef %29, ptr noundef %30, ptr noundef @dissect_afsFid, i32 noundef 1, ptr noundef @.str.376, i32 noundef -1)
  store i32 %31, ptr %9, align 4
  %32 = load ptr, ptr %8, align 8
  %33 = load i32, ptr %9, align 4
  %34 = load ptr, ptr %10, align 8
  %35 = load ptr, ptr %11, align 8
  %36 = load ptr, ptr %12, align 8
  %37 = load ptr, ptr %13, align 8
  %38 = call i32 @dissect_ndr_pointer(ptr noundef %32, i32 noundef %33, ptr noundef %34, ptr noundef %35, ptr noundef %36, ptr noundef %37, ptr noundef @dissect_afsstorestatus, i32 noundef 1, ptr noundef @.str.422, i32 noundef -1)
  store i32 %38, ptr %9, align 4
  %39 = load ptr, ptr %8, align 8
  %40 = load i32, ptr %9, align 4
  %41 = load ptr, ptr %10, align 8
  %42 = load ptr, ptr %11, align 8
  %43 = load ptr, ptr %12, align 8
  %44 = load ptr, ptr %13, align 8
  %45 = load i32, ptr @hf_fileexp_position_high, align 4
  %46 = call i32 @dissect_ndr_uint32(ptr noundef %39, i32 noundef %40, ptr noundef %41, ptr noundef %42, ptr noundef %43, ptr noundef %44, i32 noundef %45, ptr noundef %14)
  store i32 %46, ptr %9, align 4
  %47 = load ptr, ptr %8, align 8
  %48 = load i32, ptr %9, align 4
  %49 = load ptr, ptr %10, align 8
  %50 = load ptr, ptr %11, align 8
  %51 = load ptr, ptr %12, align 8
  %52 = load ptr, ptr %13, align 8
  %53 = load i32, ptr @hf_fileexp_position_low, align 4
  %54 = call i32 @dissect_ndr_uint32(ptr noundef %47, i32 noundef %48, ptr noundef %49, ptr noundef %50, ptr noundef %51, ptr noundef %52, i32 noundef %53, ptr noundef %15)
  store i32 %54, ptr %9, align 4
  %55 = load ptr, ptr %8, align 8
  %56 = load i32, ptr %9, align 4
  %57 = load ptr, ptr %10, align 8
  %58 = load ptr, ptr %11, align 8
  %59 = load ptr, ptr %12, align 8
  %60 = load ptr, ptr %13, align 8
  %61 = load i32, ptr @hf_fileexp_length, align 4
  %62 = call i32 @dissect_ndr_uint32(ptr noundef %55, i32 noundef %56, ptr noundef %57, ptr noundef %58, ptr noundef %59, ptr noundef %60, i32 noundef %61, ptr noundef %16)
  store i32 %62, ptr %9, align 4
  %63 = load ptr, ptr %10, align 8
  %64 = getelementptr inbounds nuw %struct._packet_info, ptr %63, i32 0, i32 1
  %65 = load ptr, ptr %64, align 8
  %66 = load i32, ptr %14, align 4
  %67 = load i32, ptr %15, align 4
  %68 = load i32, ptr %16, align 4
  call void (ptr, i32, ptr, ...) @col_append_fstr(ptr noundef %65, i32 noundef 25, ptr noundef @.str.414, i32 noundef %66, i32 noundef %67, i32 noundef %68)
  %69 = load ptr, ptr %8, align 8
  %70 = load i32, ptr %9, align 4
  %71 = load ptr, ptr %10, align 8
  %72 = load ptr, ptr %11, align 8
  %73 = load ptr, ptr %12, align 8
  %74 = load ptr, ptr %13, align 8
  %75 = call i32 @dissect_ndr_pointer(ptr noundef %69, i32 noundef %70, ptr noundef %71, ptr noundef %72, ptr noundef %73, ptr noundef %74, ptr noundef @dissect_minvvp, i32 noundef 1, ptr noundef @.str.377, i32 noundef -1)
  store i32 %75, ptr %9, align 4
  %76 = load ptr, ptr %8, align 8
  %77 = load i32, ptr %9, align 4
  %78 = load ptr, ptr %10, align 8
  %79 = load ptr, ptr %11, align 8
  %80 = load ptr, ptr %12, align 8
  %81 = load ptr, ptr %13, align 8
  %82 = call i32 @dissect_ndr_pointer(ptr noundef %76, i32 noundef %77, ptr noundef %78, ptr noundef %79, ptr noundef %80, ptr noundef %81, ptr noundef @dissect_afsFlags, i32 noundef 1, ptr noundef @.str.378, i32 noundef -1)
  store i32 %82, ptr %9, align 4
  %83 = load i32, ptr %9, align 4
  store i32 %83, ptr %7, align 4
  store i32 1, ptr %17, align 4
  br label %84

84:                                               ; preds = %24, %22
  call void @llvm.lifetime.end.p0(i64 4, ptr %16) #4
  call void @llvm.lifetime.end.p0(i64 4, ptr %15) #4
  call void @llvm.lifetime.end.p0(i64 4, ptr %14) #4
  %85 = load i32, ptr %7, align 4
  ret i32 %85
}